target datalayout = "e-m:e-p270:32:32-p271:32:32-p272:64:64-i64:64-i128:128-f80:128-n8:16:32:64-S128"
target triple = "x86_64-pc-linux-gnu"

%struct.SDL_AtomicInt = type { i32 }
%struct.SDL_HIDAPI_Device = type { ptr, ptr, ptr, ptr, i16, i16, i16, ptr, %struct.SDL_GUID, i32, i32, i32, i32, i16, i16, i8, i32, i32, i32, ptr, ptr, ptr, ptr, %struct.SDL_AtomicInt, i32, ptr, i8, i8, i8, ptr, i32, ptr, ptr }
%struct.SDL_GUID = type { [16 x i8] }

@SDL_HIDAPI_devices = internal global ptr null, align 8
@SDL_HIDAPI_updating_devices = internal global %struct.SDL_AtomicInt zeroinitializer, align 4

; Function Attrs: nounwind uwtable
define internal void @HIDAPI_FinishUpdatingDevices() #0 {
  %1 = call i32 @SDL_SetAtomicInt_REAL(ptr noundef @SDL_HIDAPI_updating_devices, i32 noundef 0)
  ret void
}

; Function Attrs: nounwind uwtable
define internal zeroext i1 @HIDAPI_StartUpdatingDevices() #0 {
  %1 = call zeroext i1 @SDL_CompareAndSwapAtomicInt_REAL(ptr noundef @SDL_HIDAPI_updating_devices, i32 noundef 0, i32 noundef 1)
  ret i1 %1
}

; Function Attrs: nounwind uwtable
define hidden zeroext i1 @HIDAPI_IsDeviceTypePresent(i32 noundef %0) #0 {
  %2 = alloca i1, align 1
  %3 = alloca i32, align 4
  %4 = alloca ptr, align 8
  %5 = alloca i8, align 1
  %6 = alloca i32, align 4
  store i32 %0, ptr %3, align 4
  call void @llvm.lifetime.start.p0(i64 8, ptr %4) #7
  call void @llvm.lifetime.start.p0(i64 1, ptr %5) #7
  store i8 0, ptr %5, align 1
  %7 = call zeroext i1 @HIDAPI_JoystickInit()
  br i1 %7, label %9, label %8

8:                                                ; preds = %1
  store i1 false, ptr %2, align 1
  store i32 1, ptr %6, align 4
  br label %37

9:                                                ; preds = %1
  %10 = call zeroext i1 @HIDAPI_StartUpdatingDevices()
  br i1 %10, label %11, label %12

11:                                               ; preds = %9
  call void @HIDAPI_UpdateDeviceList()
  call void @HIDAPI_FinishUpdatingDevices()
  br label %12

12:                                               ; preds = %11, %9
  call void @SDL_LockJoysticks_REAL()
  %13 = load ptr, ptr @SDL_HIDAPI_devices, align 8
  store ptr %13, ptr %4, align 8
  br label %14

14:                                               ; preds = %30, %12
  %15 = load ptr, ptr %4, align 8
  %16 = icmp ne ptr %15, null
  br i1 %16, label %17, label %34

17:                                               ; preds = %14
  %18 = load ptr, ptr %4, align 8
  %19 = getelementptr inbounds nuw %struct.SDL_HIDAPI_Device, ptr %18, i32 0, i32 19
  %20 = load ptr, ptr %19, align 8
  %21 = icmp ne ptr %20, null
  br i1 %21, label %22, label %29

22:                                               ; preds = %17
  %23 = load ptr, ptr %4, align 8
  %24 = getelementptr inbounds nuw %struct.SDL_HIDAPI_Device, ptr %23, i32 0, i32 17
  %25 = load i32, ptr %24, align 4
  %26 = load i32, ptr %3, align 4
  %27 = icmp eq i32 %25, %26
  br i1 %27, label %28, label %29

28:                                               ; preds = %22
  store i8 1, ptr %5, align 1
  br label %34

29:                                               ; preds = %22, %17
  br label %30

30:                                               ; preds = %29
  %31 = load ptr, ptr %4, align 8
  %32 = getelementptr inbounds nuw %struct.SDL_HIDAPI_Device, ptr %31, i32 0, i32 32
  %33 = load ptr, ptr %32, align 8
  store ptr %33, ptr %4, align 8
  br label %14, !llvm.loop !19

34:                                               ; preds = %28, %14
  call void @SDL_UnlockJoysticks_REAL()
  %35 = load i8, ptr %5, align 1, !range !6, !noundef !7
  %36 = trunc i8 %35 to i1
  store i1 %36, ptr %2, align 1
  store i32 1, ptr %6, align 4
  br label %37

37:                                               ; preds = %34, %8
  call void @llvm.lifetime.end.p0(i64 1, ptr %5) #7
  call void @llvm.lifetime.end.p0(i64 8, ptr %4) #7
  %38 = load i1, ptr %2, align 1
  ret i1 %38
}