; Function Attrs: nounwind uwtable
define hidden noundef zeroext i1 @HIDAPI_IsDeviceTypePresent(i32 noundef %0) local_unnamed_addr #0 {
  %2 = tail call zeroext i1 @HIDAPI_JoystickInit()
  br i1 %2, label %3, label %16

3:                                                ; preds = %1
  %4 = tail call zeroext i1 @SDL_CompareAndSwapAtomicInt_REAL(ptr noundef nonnull @SDL_HIDAPI_updating_devices, i32 noundef 0, i32 noundef 1) #9
  br i1 %4, label %5, label %7

5:                                                ; preds = %3
  tail call fastcc void @HIDAPI_UpdateDeviceList()
  %6 = tail call i32 @SDL_SetAtomicInt_REAL(ptr noundef nonnull @SDL_HIDAPI_updating_devices, i32 noundef 0) #9
  br label %7

7:                                                ; preds = %5, %3
  tail call void @SDL_LockJoysticks_REAL() #9
  %.069 = load ptr, ptr @SDL_HIDAPI_devices, align 8
  %.not10.not = icmp eq ptr %.069, null
  br i1 %.not10.not, label %._crit_edge, label %.lr.ph

.lr.ph:                                           ; preds = %7, %14
  %.0611 = phi ptr [ %.06, %14 ], [ %.069, %7 ]
  %8 = getelementptr inbounds nuw i8, ptr %.0611, i64 104
  %9 = load ptr, ptr %8, align 8
  %.not8 = icmp eq ptr %9, null
  br i1 %.not8, label %14, label %10

10:                                               ; preds = %.lr.ph
  %11 = getelementptr inbounds nuw i8, ptr %.0611, i64 92
  %12 = load i32, ptr %11, align 4
  %13 = icmp eq i32 %12, %0
  br i1 %13, label %._crit_edge, label %14

14:                                               ; preds = %.lr.ph, %10
  %15 = getelementptr inbounds nuw i8, ptr %.0611, i64 184
  %.06 = load ptr, ptr %15, align 8
  %.not.not = icmp eq ptr %.06, null
  br i1 %.not.not, label %._crit_edge, label %.lr.ph, !llvm.loop !19

._crit_edge:                                      ; preds = %14, %10, %7
  %.not.lcssa = phi i1 [ false, %7 ], [ true, %10 ], [ false, %14 ]
  tail call void @SDL_UnlockJoysticks_REAL() #9
  br label %16

16:                                               ; preds = %1, %._crit_edge
  %.07 = phi i1 [ %.not.lcssa, %._crit_edge ], [ false, %1 ]
  ret i1 %.07
}